target datalayout = "e-m:e-p270:32:32-p271:32:32-p272:64:64-i64:64-i128:128-f80:128-n8:16:32:64-S128"
target triple = "x86_64-pc-linux-gnu"

%"struct.cmExperimental::FeatureData" = type <{ %"class.std::__cxx11::basic_string", %"class.std::__cxx11::basic_string", %"class.std::__cxx11::basic_string", %"class.std::__cxx11::basic_string", %"class.std::vector", i32, i8, [3 x i8] }>
%"class.std::__cxx11::basic_string" = type { %"struct.std::__cxx11::basic_string<char>::_Alloc_hider", i64, %union.anon }
%"struct.std::__cxx11::basic_string<char>::_Alloc_hider" = type { ptr }
%union.anon = type { i64, [8 x i8] }
%"class.std::vector" = type { %"struct.std::_Vector_base" }
%"struct.std::_Vector_base" = type { %"struct.std::_Vector_base<std::__cxx11::basic_string<char>, std::allocator<std::__cxx11::basic_string<char>>>::_Vector_impl" }
%"struct.std::_Vector_base<std::__cxx11::basic_string<char>, std::allocator<std::__cxx11::basic_string<char>>>::_Vector_impl" = type { %"struct.std::_Vector_base<std::__cxx11::basic_string<char>, std::allocator<std::__cxx11::basic_string<char>>>::_Vector_impl_data" }
%"struct.std::_Vector_base<std::__cxx11::basic_string<char>, std::allocator<std::__cxx11::basic_string<char>>>::_Vector_impl_data" = type { ptr, ptr, ptr }
%class.cmValue = type { ptr }
%"class.std::basic_string_view" = type { i64, ptr }

@_ZN12_GLOBAL__N_111LookupTableE = internal global [1 x %"struct.cmExperimental::FeatureData"] zeroinitializer, align 16

; Function Attrs: mustprogress nounwind uwtable
define linkonce_odr dso_local noundef zeroext i1 @_Zeq7cmValueSt17basic_string_viewIcSt11char_traitsIcEE(ptr %0, i64 %1, ptr %2) #6 comdat {
  %4 = alloca %class.cmValue, align 8
  %5 = alloca %"class.std::basic_string_view", align 8
  %6 = alloca %"class.std::basic_string_view", align 8
  %7 = getelementptr inbounds %class.cmValue, ptr %4, i32 0, i32 0
  store ptr %0, ptr %7, align 8
  %8 = getelementptr inbounds { i64, ptr }, ptr %5, i32 0, i32 0
  store i64 %1, ptr %8, align 8
  %9 = getelementptr inbounds { i64, ptr }, ptr %5, i32 0, i32 1
  store ptr %2, ptr %9, align 8
  call void @llvm.memcpy.p0.p0.i64(ptr align 8 %6, ptr align 8 %5, i64 16, i1 false)
  %10 = getelementptr inbounds { i64, ptr }, ptr %6, i32 0, i32 0
  %11 = load i64, ptr %10, align 8
  %12 = getelementptr inbounds { i64, ptr }, ptr %6, i32 0, i32 1
  %13 = load ptr, ptr %12, align 8
  %14 = call noundef i32 @_ZNK7cmValue7CompareESt17basic_string_viewIcSt11char_traitsIcEE(ptr noundef nonnull align 8 dereferenceable(8) %4, i64 %11, ptr %13) #3
  %15 = icmp eq i32 %14, 0
  ret i1 %15
}

; Function Attrs: mustprogress nounwind uwtable
define internal noundef nonnull align 8 dereferenceable(157) ptr @_ZN12_GLOBAL__N_114DataForFeatureEN14cmExperimental7FeatureE(i32 noundef %0) #6 {
  %2 = alloca i32, align 4
  store i32 %0, ptr %2, align 4
  %3 = load i32, ptr %2, align 4
  %4 = sext i32 %3 to i64
  %5 = getelementptr inbounds [1 x %"struct.cmExperimental::FeatureData"], ptr @_ZN12_GLOBAL__N_111LookupTableE, i64 0, i64 %4
  ret ptr %5
}

; Function Attrs: mustprogress uwtable
define dso_local noundef zeroext i1 @_ZN14cmExperimental17HasSupportEnabledERK10cmMakefileNS_7FeatureE(ptr noundef nonnull align 8 dereferenceable(3520) %0, i32 noundef %1) #4 align 2 {
  %3 = alloca ptr, align 8
  %4 = alloca i32, align 4
  %5 = alloca i8, align 1
  %6 = alloca ptr, align 8
  %7 = alloca %class.cmValue, align 8
  %8 = alloca %class.cmValue, align 8
  %9 = alloca %"class.std::basic_string_view", align 8
  store ptr %0, ptr %3, align 8
  store i32 %1, ptr %4, align 4
  store i8 0, ptr %5, align 1
  %10 = load i32, ptr %4, align 4
  %11 = call noundef nonnull align 8 dereferenceable(157) ptr @_ZN12_GLOBAL__N_114DataForFeatureEN14cmExperimental7FeatureE(i32 noundef %10)
  store ptr %11, ptr %6, align 8
  %12 = load ptr, ptr %3, align 8
  %13 = load ptr, ptr %6, align 8
  %14 = getelementptr inbounds %"struct.cmExperimental::FeatureData", ptr %13, i32 0, i32 2
  %15 = call ptr @_ZNK10cmMakefile13GetDefinitionERKNSt7__cxx1112basic_stringIcSt11char_traitsIcESaIcEEE(ptr noundef nonnull align 8 dereferenceable(3520) %12, ptr noundef nonnull align 8 dereferenceable(32) %14)
  %16 = getelementptr inbounds %class.cmValue, ptr %7, i32 0, i32 0
  store ptr %15, ptr %16, align 8
  call void @llvm.memcpy.p0.p0.i64(ptr align 8 %8, ptr align 8 %7, i64 8, i1 false)
  %17 = load ptr, ptr %6, align 8
  %18 = getelementptr inbounds %"struct.cmExperimental::FeatureData", ptr %17, i32 0, i32 1
  %19 = call { i64, ptr } @_ZNKSt7__cxx1112basic_stringIcSt11char_traitsIcESaIcEEcvSt17basic_string_viewIcS2_EEv(ptr noundef nonnull align 8 dereferenceable(32) %18) #3
  %20 = getelementptr inbounds { i64, ptr }, ptr %9, i32 0, i32 0
  %21 = extractvalue { i64, ptr } %19, 0
  store i64 %21, ptr %20, align 8
  %22 = getelementptr inbounds { i64, ptr }, ptr %9, i32 0, i32 1
  %23 = extractvalue { i64, ptr } %19, 1
  store ptr %23, ptr %22, align 8
  %24 = getelementptr inbounds %class.cmValue, ptr %8, i32 0, i32 0
  %25 = load ptr, ptr %24, align 8
  %26 = getelementptr inbounds { i64, ptr }, ptr %9, i32 0, i32 0
  %27 = load i64, ptr %26, align 8
  %28 = getelementptr inbounds { i64, ptr }, ptr %9, i32 0, i32 1
  %29 = load ptr, ptr %28, align 8
  %30 = call noundef zeroext i1 @_Zeq7cmValueSt17basic_string_viewIcSt11char_traitsIcEE(ptr %25, i64 %27, ptr %29) #3
  br i1 %30, label %31, label %32

31:                                               ; preds = %2
  store i8 1, ptr %5, align 1
  br label %32

32:                                               ; preds = %31, %2
  %33 = load i8, ptr %5, align 1
  %34 = trunc i8 %33 to i1
  br i1 %34, label %35, label %46

35:                                               ; preds = %32
  %36 = load ptr, ptr %6, align 8
  %37 = getelementptr inbounds %"struct.cmExperimental::FeatureData", ptr %36, i32 0, i32 6
  %38 = load i8, ptr %37, align 4
  %39 = trunc i8 %38 to i1
  br i1 %39, label %46, label %40

40:                                               ; preds = %35
  %41 = load ptr, ptr %3, align 8
  %42 = load ptr, ptr %6, align 8
  %43 = getelementptr inbounds %"struct.cmExperimental::FeatureData", ptr %42, i32 0, i32 3
  call void @_ZNK10cmMakefile12IssueMessageE11MessageTypeRKNSt7__cxx1112basic_stringIcSt11char_traitsIcESaIcEEE(ptr noundef nonnull align 8 dereferenceable(3520) %41, i32 noundef 0, ptr noundef nonnull align 8 dereferenceable(32) %43)
  %44 = load ptr, ptr %6, align 8
  %45 = getelementptr inbounds %"struct.cmExperimental::FeatureData", ptr %44, i32 0, i32 6
  store i8 1, ptr %45, align 4
  br label %46

46:                                               ; preds = %40, %35, %32
  %47 = load i8, ptr %5, align 1
  %48 = trunc i8 %47 to i1
  ret i1 %48
}