; Function Attrs: mustprogress uwtable
define dso_local noundef zeroext i1 @_ZN14cmExperimental17HasSupportEnabledERK10cmMakefileNS_7FeatureE(ptr noundef nonnull align 8 dereferenceable(3520) %0, i32 noundef %1) local_unnamed_addr #6 align 2 {
  %3 = alloca %class.cmValue, align 8
  %4 = sext i32 %1 to i64
  %5 = getelementptr inbounds [1 x %"struct.cmExperimental::FeatureData"], ptr @_ZN12_GLOBAL__N_111LookupTableE, i64 0, i64 %4
  %6 = getelementptr inbounds nuw i8, ptr %5, i64 64
  %7 = tail call ptr @_ZNK10cmMakefile13GetDefinitionERKNSt7__cxx1112basic_stringIcSt11char_traitsIcESaIcEEE(ptr noundef nonnull align 8 dereferenceable(3520) %0, ptr noundef nonnull align 8 dereferenceable(32) %6)
  %8 = getelementptr inbounds nuw i8, ptr %5, i64 32
  %9 = tail call { i64, ptr } @_ZNKSt7__cxx1112basic_stringIcSt11char_traitsIcESaIcEEcvSt17basic_string_viewIcS2_EEv(ptr noundef nonnull align 8 dereferenceable(32) %8) #13
  %10 = extractvalue { i64, ptr } %9, 0
  %11 = extractvalue { i64, ptr } %9, 1
  call void @llvm.lifetime.start.p0(i64 8, ptr nonnull %3)
  store ptr %7, ptr %3, align 8
  %12 = call noundef i32 @_ZNK7cmValue7CompareESt17basic_string_viewIcSt11char_traitsIcEE(ptr noundef nonnull align 8 dereferenceable(8) %3, i64 %10, ptr %11) #13
  %13 = icmp eq i32 %12, 0
  call void @llvm.lifetime.end.p0(i64 8, ptr nonnull %3)
  br i1 %13, label %14, label %20

14:                                               ; preds = %2
  %15 = getelementptr inbounds nuw i8, ptr %5, i64 156
  %16 = load i8, ptr %15, align 4
  %17 = trunc i8 %16 to i1
  br i1 %17, label %20, label %18

18:                                               ; preds = %14
  %19 = getelementptr inbounds nuw i8, ptr %5, i64 96
  call void @_ZNK10cmMakefile12IssueMessageE11MessageTypeRKNSt7__cxx1112basic_stringIcSt11char_traitsIcESaIcEEE(ptr noundef nonnull align 8 dereferenceable(3520) %0, i32 noundef 0, ptr noundef nonnull align 8 dereferenceable(32) %19)
  store i8 1, ptr %15, align 4
  br label %20

20:                                               ; preds = %18, %14, %2
  ret i1 %13
}